; Function Attrs: mustprogress nofree norecurse nosync nounwind willreturn memory(read, inaccessiblemem: none) uwtable
define noundef zeroext i16 @_ZNK6icu_756number4impl30PropertiesAffixPatternProvider6charAtEii(ptr nocapture noundef nonnull readonly align 8 dereferenceable(267) %this, i32 noundef %flags, i32 noundef %i) unnamed_addr #7 align 2 {
entry:
  %and2.i = and i32 %flags, 512
  %cmp3.not.i = icmp eq i32 %and2.i, 0
  %0 = and i32 %flags, 768
  %brmerge.not.i = icmp eq i32 %0, 768
  %and.i = and i32 %flags, 256
  %cmp.not.i = icmp eq i32 %and.i, 0
  %..i = select i1 %cmp3.not.i, i64 72, i64 200
  %spec.select.i = select i1 %cmp.not.i, i64 %..i, i64 8
  %.sink.i = select i1 %brmerge.not.i, i64 136, i64 %spec.select.i
  %posSuffix.i = getelementptr inbounds i8, ptr %this, i64 %.sink.i
  %fUnion.i.i.i.i = getelementptr inbounds i8, ptr %posSuffix.i, i64 8
  %1 = load i16, ptr %fUnion.i.i.i.i, align 8
  %cmp.i.i.i.i = icmp slt i16 %1, 0
  %2 = ashr i16 %1, 5
  %shr.i.i.i.i = sext i16 %2 to i32
  %fLength.i.i.i = getelementptr inbounds i8, ptr %posSuffix.i, i64 12
  %3 = load i32, ptr %fLength.i.i.i, align 4
  %cond.i.i.i = select i1 %cmp.i.i.i.i, i32 %3, i32 %shr.i.i.i.i
  %cmp.i.i = icmp ugt i32 %cond.i.i.i, %i
  br i1 %cmp.i.i, label %if.then.i.i, label %_ZNK6icu_7513UnicodeString6charAtEi.exit

if.then.i.i:                                      ; preds = %entry
  %4 = and i16 %1, 2
  %tobool.not.i.i.i = icmp eq i16 %4, 0
  %fBuffer.i.i.i = getelementptr inbounds i8, ptr %posSuffix.i, i64 10
  %fArray.i.i.i = getelementptr inbounds i8, ptr %posSuffix.i, i64 24
  %5 = load ptr, ptr %fArray.i.i.i, align 8
  %cond.i2.i.i = select i1 %tobool.not.i.i.i, ptr %5, ptr %fBuffer.i.i.i
  %idxprom.i.i = sext i32 %i to i64
  %arrayidx.i.i = getelementptr inbounds i16, ptr %cond.i2.i.i, i64 %idxprom.i.i
  %6 = load i16, ptr %arrayidx.i.i, align 2
  br label %_ZNK6icu_7513UnicodeString6charAtEi.exit

_ZNK6icu_7513UnicodeString6charAtEi.exit:         ; preds = %entry, %if.then.i.i
  %retval.0.i.i = phi i16 [ %6, %if.then.i.i ], [ -1, %entry ]
  ret i16 %retval.0.i.i
}